; Function Attrs: nounwind uwtable
define i32 @lv_obj_get_event_count(ptr noundef readonly %0) local_unnamed_addr #0 {
  %.not = icmp eq ptr %0, null
  br i1 %.not, label %.preheader, label %2

.preheader:                                       ; preds = %1, %.preheader
  br label %.preheader

2:                                                ; preds = %1
  %3 = getelementptr inbounds nuw i8, ptr %0, i64 16
  %4 = load ptr, ptr %3, align 8, !tbaa !13
  %5 = icmp eq ptr %4, null
  br i1 %5, label %9, label %6

6:                                                ; preds = %2
  %7 = getelementptr inbounds nuw i8, ptr %4, i64 16
  %8 = tail call i32 @lv_event_get_count(ptr noundef nonnull %7) #4
  br label %9

9:                                                ; preds = %2, %6
  %.0 = phi i32 [ %8, %6 ], [ 0, %2 ]
  ret i32 %.0
}